; Function Attrs: mustprogress uwtable
define noundef i32 @_ZNK5arrow14DictionaryType9bit_widthEv(ptr noundef nonnull readonly align 8 captures(none) dereferenceable(105) %0) unnamed_addr #1 align 2 {
  %2 = getelementptr inbounds nuw i8, ptr %0, i64 72
  %3 = load ptr, ptr %2, align 8, !tbaa !333
  %4 = load ptr, ptr %3, align 8, !tbaa !330
  %5 = getelementptr inbounds nuw i8, ptr %4, i64 72
  %6 = load ptr, ptr %5, align 8
  %7 = tail call noundef i32 %6(ptr noundef nonnull align 8 dereferenceable(72) %3)
  ret i32 %7
}